; Function Attrs: mustprogress nounwind uwtable
define hidden noundef zeroext i1 @_ZNK13InstanceKlass27can_be_verified_at_dumptimeEv(ptr noundef nonnull align 8 dereferenceable(464) %0) local_unnamed_addr #0 align 2 {
  %2 = load ptr, ptr @_ZN12MetaspaceObj21_shared_metaspace_topE, align 8
  %3 = icmp ugt ptr %2, %0
  %4 = load ptr, ptr @_ZN12MetaspaceObj22_shared_metaspace_baseE, align 8
  %5 = icmp ule ptr %4, %0
  %6 = select i1 %3, i1 %5, i1 false
  br i1 %6, label %.loopexit, label %7

7:                                                ; preds = %1
  %8 = getelementptr inbounds i8, ptr %0, i64 224
  %9 = load ptr, ptr %8, align 8
  %10 = getelementptr inbounds i8, ptr %9, i64 48
  %11 = load i16, ptr %10, align 8
  %12 = icmp ult i16 %11, 50
  br i1 %12, label %.loopexit, label %13

13:                                               ; preds = %7
  %14 = load ptr, ptr %0, align 8
  %15 = getelementptr inbounds i8, ptr %14, i64 120
  %16 = load ptr, ptr %15, align 8
  %17 = tail call noundef ptr %16(ptr noundef nonnull align 8 dereferenceable(464) %0) #26
  %.not = icmp eq ptr %17, null
  br i1 %.not, label %24, label %18

18:                                               ; preds = %13
  %19 = load ptr, ptr %0, align 8
  %20 = getelementptr inbounds i8, ptr %19, i64 120
  %21 = load ptr, ptr %20, align 8
  %22 = tail call noundef ptr %21(ptr noundef nonnull align 8 dereferenceable(464) %0) #26
  %23 = tail call noundef zeroext i1 @_ZNK13InstanceKlass27can_be_verified_at_dumptimeEv(ptr noundef nonnull align 8 dereferenceable(464) %22)
  br i1 %23, label %24, label %.loopexit

24:                                               ; preds = %18, %13
  %25 = getelementptr inbounds i8, ptr %0, i64 416
  %26 = load ptr, ptr %25, align 8
  %27 = load i32, ptr %26, align 8
  %28 = icmp sgt i32 %27, 0
  br i1 %28, label %.lr.ph, label %.loopexit

.lr.ph:                                           ; preds = %24
  %29 = getelementptr inbounds i8, ptr %26, i64 8
  %wide.trip.count = zext nneg i32 %27 to i64
  br label %30

30:                                               ; preds = %30, %.lr.ph
  %indvars.iv = phi i64 [ 0, %.lr.ph ], [ %indvars.iv.next, %30 ]
  %31 = getelementptr inbounds ptr, ptr %29, i64 %indvars.iv
  %32 = load ptr, ptr %31, align 8
  %33 = tail call noundef zeroext i1 @_ZNK13InstanceKlass27can_be_verified_at_dumptimeEv(ptr noundef nonnull align 8 dereferenceable(464) %32)
  %indvars.iv.next = add nuw nsw i64 %indvars.iv, 1
  %exitcond.not = icmp ne i64 %indvars.iv.next, %wide.trip.count
  %or.cond.not = select i1 %33, i1 %exitcond.not, i1 false
  br i1 %or.cond.not, label %30, label %.loopexit, !llvm.loop !72

.loopexit:                                        ; preds = %30, %24, %18, %7, %1
  %.07 = phi i1 [ true, %1 ], [ false, %7 ], [ false, %18 ], [ true, %24 ], [ %33, %30 ]
  ret i1 %.07
}